target datalayout = "e-m:e-p270:32:32-p271:32:32-p272:64:64-i64:64-i128:128-f80:128-n8:16:32:64-S128"
target triple = "x86_64-pc-linux-gnu"

; Function Attrs: nounwind uwtable
define internal i32 @finishpcall(ptr noundef %0, i32 noundef %1, i64 noundef %2) #0 {
  %4 = alloca i32, align 4
  %5 = alloca ptr, align 8
  %6 = alloca i32, align 4
  %7 = alloca i64, align 8
  store ptr %0, ptr %5, align 8, !tbaa !4
  store i32 %1, ptr %6, align 4, !tbaa !10
  store i64 %2, ptr %7, align 8, !tbaa !16
  %8 = load i32, ptr %6, align 4, !tbaa !10
  %9 = icmp ne i32 %8, 0
  br i1 %9, label %10, label %13

10:                                               ; preds = %3
  %11 = load i32, ptr %6, align 4, !tbaa !10
  %12 = icmp ne i32 %11, 1
  br label %13

13:                                               ; preds = %10, %3
  %14 = phi i1 [ false, %3 ], [ %12, %10 ]
  %15 = zext i1 %14 to i32
  %16 = icmp ne i32 %15, 0
  %17 = zext i1 %16 to i32
  %18 = sext i32 %17 to i64
  %19 = call i64 @llvm.expect.i64(i64 %18, i64 0)
  %20 = icmp ne i64 %19, 0
  br i1 %20, label %21, label %24

21:                                               ; preds = %13
  %22 = load ptr, ptr %5, align 8, !tbaa !4
  call void @lua_pushboolean(ptr noundef %22, i32 noundef 0)
  %23 = load ptr, ptr %5, align 8, !tbaa !4
  call void @lua_pushvalue(ptr noundef %23, i32 noundef -2)
  store i32 2, ptr %4, align 4
  br label %30

24:                                               ; preds = %13
  %25 = load ptr, ptr %5, align 8, !tbaa !4
  %26 = call i32 @lua_gettop(ptr noundef %25)
  %27 = load i64, ptr %7, align 8, !tbaa !16
  %28 = trunc i64 %27 to i32
  %29 = sub nsw i32 %26, %28
  store i32 %29, ptr %4, align 4
  br label %30

30:                                               ; preds = %24, %21
  %31 = load i32, ptr %4, align 4
  ret i32 %31
}