; Function Attrs: nounwind uwtable
define internal i32 @finishpcall(ptr noundef %0, i32 noundef %1, i64 noundef %2) #0 {
  %4 = icmp ugt i32 %1, 1
  br i1 %4, label %5, label %6, !prof !4

5:                                                ; preds = %3
  tail call void @lua_pushboolean(ptr noundef %0, i32 noundef 0) #9
  tail call void @lua_pushvalue(ptr noundef %0, i32 noundef -2) #9
  br label %10

6:                                                ; preds = %3
  %7 = tail call i32 @lua_gettop(ptr noundef %0) #9
  %8 = trunc i64 %2 to i32
  %9 = sub nsw i32 %7, %8
  br label %10

10:                                               ; preds = %6, %5
  %.0 = phi i32 [ 2, %5 ], [ %9, %6 ]
  ret i32 %.0
}